target datalayout = "e-m:e-p270:32:32-p271:32:32-p272:64:64-i64:64-i128:128-f80:128-n8:16:32:64-S128"
target triple = "x86_64-unknown-linux-gnu"

%"class.cvc5::internal::NodeTemplate.0" = type { ptr }
%"class.cvc5::internal::NodeTemplate" = type { ptr }
%"class.cvc5::internal::theory::arith::linear::Constraint" = type <{ i32, i32, %"class.cvc5::internal::DeltaRational", ptr, %"class.cvc5::internal::NodeTemplate", ptr, i8, [7 x i8], i64, %"class.cvc5::internal::NodeTemplate.0", i64, i8, [7 x i8], %"struct.std::_Rb_tree_iterator", i8, [7 x i8] }>
%"class.cvc5::internal::DeltaRational" = type { %"class.cvc5::internal::Rational", %"class.cvc5::internal::Rational" }
%"class.cvc5::internal::Rational" = type { %class.__gmp_expr }
%class.__gmp_expr = type { [1 x %struct.__mpq_struct] }
%struct.__mpq_struct = type { %struct.__mpz_struct, %struct.__mpz_struct }
%struct.__mpz_struct = type { i32, i32, ptr }
%"struct.std::_Rb_tree_iterator" = type { ptr }

; Function Attrs: mustprogress nounwind uwtable
define linkonce_odr hidden noundef zeroext i1 @_ZNK4cvc58internal6theory5arith6linear10Constraint19assertedToTheTheoryEv(ptr noundef nonnull align 8 dereferenceable(145) %this) #4 comdat align 2 {
entry:
  %this.addr = alloca ptr, align 8
  store ptr %this, ptr %this.addr, align 8
  %this1 = load ptr, ptr %this.addr, align 8
  %d_assertionOrder = getelementptr inbounds %"class.cvc5::internal::theory::arith::linear::Constraint", ptr %this1, i32 0, i32 8
  %0 = load i64, ptr %d_assertionOrder, align 8
  %cmp = icmp ult i64 %0, -1
  ret i1 %cmp
}

; Function Attrs: mustprogress nounwind uwtable
define linkonce_odr hidden noundef zeroext i1 @_ZNK4cvc58internal6theory5arith6linear10Constraint15canBePropagatedEv(ptr noundef nonnull align 8 dereferenceable(145) %this) #4 comdat align 2 {
entry:
  %this.addr = alloca ptr, align 8
  store ptr %this, ptr %this.addr, align 8
  %this1 = load ptr, ptr %this.addr, align 8
  %d_canBePropagated = getelementptr inbounds %"class.cvc5::internal::theory::arith::linear::Constraint", ptr %this1, i32 0, i32 6
  %0 = load i8, ptr %d_canBePropagated, align 8
  %tobool = trunc i8 %0 to i1
  ret i1 %tobool
}

; Function Attrs: mustprogress nounwind uwtable
define linkonce_odr hidden noundef zeroext i1 @_ZNK4cvc58internal6theory5arith6linear10Constraint7isSplitEv(ptr noundef nonnull align 8 dereferenceable(145) %this) #4 comdat align 2 {
entry:
  %this.addr = alloca ptr, align 8
  store ptr %this, ptr %this.addr, align 8
  %this1 = load ptr, ptr %this.addr, align 8
  %d_split = getelementptr inbounds %"class.cvc5::internal::theory::arith::linear::Constraint", ptr %this1, i32 0, i32 11
  %0 = load i8, ptr %d_split, align 8
  %tobool = trunc i8 %0 to i1
  ret i1 %tobool
}

; Function Attrs: mustprogress nounwind uwtable
define linkonce_odr hidden noundef zeroext i1 @_ZNK4cvc58internal6theory5arith6linear10Constraint8hasProofEv(ptr noundef nonnull align 8 dereferenceable(145) %this) #4 comdat align 2 {
entry:
  %this.addr = alloca ptr, align 8
  store ptr %this, ptr %this.addr, align 8
  %this1 = load ptr, ptr %this.addr, align 8
  %d_crid = getelementptr inbounds %"class.cvc5::internal::theory::arith::linear::Constraint", ptr %this1, i32 0, i32 10
  %0 = load i64, ptr %d_crid, align 8
  %cmp = icmp ne i64 %0, -1
  ret i1 %cmp
}

; Function Attrs: mustprogress uwtable
define hidden noundef zeroext i1 @_ZNK4cvc58internal6theory5arith6linear10Constraint25contextDependentDataIsSetEv(ptr noundef nonnull align 8 dereferenceable(145) %this) #5 align 2 {
entry:
  %this.addr = alloca ptr, align 8
  store ptr %this, ptr %this.addr, align 8
  %this1 = load ptr, ptr %this.addr, align 8
  %call = call noundef zeroext i1 @_ZNK4cvc58internal6theory5arith6linear10Constraint8hasProofEv(ptr noundef nonnull align 8 dereferenceable(145) %this1)
  br i1 %call, label %lor.end, label %lor.lhs.false

lor.lhs.false:                                    ; preds = %entry
  %call2 = call noundef zeroext i1 @_ZNK4cvc58internal6theory5arith6linear10Constraint7isSplitEv(ptr noundef nonnull align 8 dereferenceable(145) %this1)
  br i1 %call2, label %lor.end, label %lor.lhs.false3

lor.lhs.false3:                                   ; preds = %lor.lhs.false
  %call4 = call noundef zeroext i1 @_ZNK4cvc58internal6theory5arith6linear10Constraint15canBePropagatedEv(ptr noundef nonnull align 8 dereferenceable(145) %this1)
  br i1 %call4, label %lor.end, label %lor.rhs

lor.rhs:                                          ; preds = %lor.lhs.false3
  %call5 = call noundef zeroext i1 @_ZNK4cvc58internal6theory5arith6linear10Constraint19assertedToTheTheoryEv(ptr noundef nonnull align 8 dereferenceable(145) %this1)
  br label %lor.end

lor.end:                                          ; preds = %lor.rhs, %lor.lhs.false3, %lor.lhs.false, %entry
  %0 = phi i1 [ true, %lor.lhs.false3 ], [ true, %lor.lhs.false ], [ true, %entry ], [ %call5, %lor.rhs ]
  ret i1 %0
}