; Function Attrs: mustprogress nofree norecurse nosync nounwind willreturn memory(argmem: read) uwtable
define hidden noundef zeroext i1 @_ZNK4cvc58internal6theory5arith6linear10Constraint25contextDependentDataIsSetEv(ptr nocapture noundef nonnull readonly align 8 dereferenceable(145) %this) local_unnamed_addr #7 align 2 {
entry:
  %d_crid.i = getelementptr inbounds i8, ptr %this, i64 120
  %0 = load i64, ptr %d_crid.i, align 8
  %cmp.i.not = icmp eq i64 %0, -1
  br i1 %cmp.i.not, label %lor.lhs.false, label %lor.end

lor.lhs.false:                                    ; preds = %entry
  %d_split.i = getelementptr inbounds i8, ptr %this, i64 128
  %1 = load i8, ptr %d_split.i, align 8
  %2 = and i8 %1, 1
  %tobool.i.not = icmp eq i8 %2, 0
  br i1 %tobool.i.not, label %lor.lhs.false3, label %lor.end

lor.lhs.false3:                                   ; preds = %lor.lhs.false
  %d_canBePropagated.i = getelementptr inbounds i8, ptr %this, i64 96
  %3 = load i8, ptr %d_canBePropagated.i, align 8
  %4 = and i8 %3, 1
  %tobool.i1.not = icmp eq i8 %4, 0
  br i1 %tobool.i1.not, label %lor.rhs, label %lor.end

lor.rhs:                                          ; preds = %lor.lhs.false3
  %d_assertionOrder.i = getelementptr inbounds i8, ptr %this, i64 104
  %5 = load i64, ptr %d_assertionOrder.i, align 8
  %cmp.i2 = icmp ne i64 %5, -1
  br label %lor.end

lor.end:                                          ; preds = %lor.rhs, %lor.lhs.false3, %lor.lhs.false, %entry
  %6 = phi i1 [ true, %lor.lhs.false3 ], [ true, %lor.lhs.false ], [ true, %entry ], [ %cmp.i2, %lor.rhs ]
  ret i1 %6
}